target datalayout = "e-m:e-p270:32:32-p271:32:32-p272:64:64-i64:64-i128:128-f80:128-n8:16:32:64-S128"
target triple = "x86_64-pc-linux-gnu"

%struct.wt_status = type { ptr, i32, ptr, ptr, %struct.pathspec, i32, i32, i32, i32, i32, i32, i32, i32, i32, i32, i32, ptr, [9 x [75 x i8]], i32, i32, i32, i32, i32, i32, i32, i32, i32, i32, i32, i8, %struct.wt_status_state, %struct.object_id, i32, i32, ptr, ptr, ptr, %struct.string_list, %struct.string_list, %struct.string_list, i32 }
%struct.pathspec = type { i32, i8, i32, i32, ptr }
%struct.wt_status_state = type { i32, i32, i32, i32, i32, i32, i32, i32, i32, i32, ptr, ptr, ptr, ptr, %struct.object_id, %struct.object_id, %struct.object_id }
%struct.object_id = type { [32 x i8], i32 }
%struct.string_list = type { ptr, i64, i64, i8, ptr }

@the_repository = external global ptr, align 8
@.str.1 = private unnamed_addr constant [5 x i8] c"HEAD\00", align 1
@stdout = external global ptr, align 8

; Function Attrs: nounwind uwtable
define dso_local void @wt_status_prepare(ptr noundef %0, ptr noundef %1) #0 {
  %3 = alloca ptr, align 8
  %4 = alloca ptr, align 8
  store ptr %0, ptr %3, align 8, !tbaa !33
  store ptr %1, ptr %4, align 8, !tbaa !4
  %5 = load ptr, ptr %4, align 8, !tbaa !4
  call void @llvm.memset.p0.i64(ptr align 8 %5, i8 0, i64 1224, i1 false)
  %6 = load ptr, ptr %3, align 8, !tbaa !33
  %7 = load ptr, ptr %4, align 8, !tbaa !4
  %8 = getelementptr inbounds nuw %struct.wt_status, ptr %7, i32 0, i32 0
  store ptr %6, ptr %8, align 8, !tbaa !34
  %9 = load ptr, ptr %4, align 8, !tbaa !4
  %10 = getelementptr inbounds nuw %struct.wt_status, ptr %9, i32 0, i32 17
  %11 = getelementptr inbounds [9 x [75 x i8]], ptr %10, i64 0, i64 0
  call void @llvm.memcpy.p0.p0.i64(ptr align 8 %11, ptr align 16 @default_wt_status_colors, i64 675, i1 false)
  %12 = load ptr, ptr %4, align 8, !tbaa !4
  %13 = getelementptr inbounds nuw %struct.wt_status, ptr %12, i32 0, i32 15
  store i32 1, ptr %13, align 8, !tbaa !35
  %14 = load ptr, ptr %4, align 8, !tbaa !4
  %15 = getelementptr inbounds nuw %struct.wt_status, ptr %14, i32 0, i32 9
  store i32 -1, ptr %15, align 8, !tbaa !36
  %16 = load ptr, ptr %4, align 8, !tbaa !4
  %17 = getelementptr inbounds nuw %struct.wt_status, ptr %16, i32 0, i32 12
  store i32 1, ptr %17, align 4, !tbaa !37
  %18 = load ptr, ptr @the_repository, align 8, !tbaa !33
  %19 = call ptr @get_main_ref_store(ptr noundef %18)
  %20 = call ptr @refs_resolve_refdup(ptr noundef %19, ptr noundef @.str.1, i32 noundef 0, ptr noundef null, ptr noundef null)
  %21 = load ptr, ptr %4, align 8, !tbaa !4
  %22 = getelementptr inbounds nuw %struct.wt_status, ptr %21, i32 0, i32 2
  store ptr %20, ptr %22, align 8, !tbaa !38
  %23 = load ptr, ptr %4, align 8, !tbaa !4
  %24 = getelementptr inbounds nuw %struct.wt_status, ptr %23, i32 0, i32 3
  store ptr @.str.1, ptr %24, align 8, !tbaa !39
  %25 = load ptr, ptr @stdout, align 8, !tbaa !40
  %26 = load ptr, ptr %4, align 8, !tbaa !4
  %27 = getelementptr inbounds nuw %struct.wt_status, ptr %26, i32 0, i32 35
  store ptr %25, ptr %27, align 8, !tbaa !28
  %28 = load ptr, ptr @the_repository, align 8, !tbaa !33
  %29 = call ptr @repo_get_index_file(ptr noundef %28)
  %30 = load ptr, ptr %4, align 8, !tbaa !4
  %31 = getelementptr inbounds nuw %struct.wt_status, ptr %30, i32 0, i32 34
  store ptr %29, ptr %31, align 8, !tbaa !41
  %32 = load ptr, ptr %4, align 8, !tbaa !4
  %33 = getelementptr inbounds nuw %struct.wt_status, ptr %32, i32 0, i32 37
  %34 = getelementptr inbounds nuw %struct.string_list, ptr %33, i32 0, i32 3
  %35 = load i8, ptr %34, align 8
  %36 = and i8 %35, -2
  %37 = or i8 %36, 1
  store i8 %37, ptr %34, align 8
  %38 = load ptr, ptr %4, align 8, !tbaa !4
  %39 = getelementptr inbounds nuw %struct.wt_status, ptr %38, i32 0, i32 38
  %40 = getelementptr inbounds nuw %struct.string_list, ptr %39, i32 0, i32 3
  %41 = load i8, ptr %40, align 8
  %42 = and i8 %41, -2
  %43 = or i8 %42, 1
  store i8 %43, ptr %40, align 8
  %44 = load ptr, ptr %4, align 8, !tbaa !4
  %45 = getelementptr inbounds nuw %struct.wt_status, ptr %44, i32 0, i32 39
  %46 = getelementptr inbounds nuw %struct.string_list, ptr %45, i32 0, i32 3
  %47 = load i8, ptr %46, align 8
  %48 = and i8 %47, -2
  %49 = or i8 %48, 1
  store i8 %49, ptr %46, align 8
  %50 = load ptr, ptr %4, align 8, !tbaa !4
  %51 = getelementptr inbounds nuw %struct.wt_status, ptr %50, i32 0, i32 21
  store i32 -1, ptr %51, align 8, !tbaa !42
  %52 = load ptr, ptr %4, align 8, !tbaa !4
  %53 = getelementptr inbounds nuw %struct.wt_status, ptr %52, i32 0, i32 22
  store i32 0, ptr %53, align 4, !tbaa !43
  %54 = load ptr, ptr %4, align 8, !tbaa !4
  %55 = getelementptr inbounds nuw %struct.wt_status, ptr %54, i32 0, i32 24
  store i32 -1, ptr %55, align 4, !tbaa !44
  %56 = load ptr, ptr %4, align 8, !tbaa !4
  %57 = getelementptr inbounds nuw %struct.wt_status, ptr %56, i32 0, i32 11
  store i32 0, ptr %57, align 8, !tbaa !18
  %58 = load ptr, ptr %4, align 8, !tbaa !4
  %59 = getelementptr inbounds nuw %struct.wt_status, ptr %58, i32 0, i32 25
  store i32 -1, ptr %59, align 8, !tbaa !45
  %60 = load ptr, ptr %4, align 8, !tbaa !4
  %61 = getelementptr inbounds nuw %struct.wt_status, ptr %60, i32 0, i32 26
  store i32 -1, ptr %61, align 4, !tbaa !46
  %62 = load ptr, ptr %4, align 8, !tbaa !4
  %63 = getelementptr inbounds nuw %struct.wt_status, ptr %62, i32 0, i32 27
  store i32 -1, ptr %63, align 8, !tbaa !47
  ret void
}