; Function Attrs: nounwind uwtable
define dso_local void @wt_status_prepare(ptr noundef %0, ptr noundef captures(none) initializes((0, 1224)) %1) local_unnamed_addr #0 {
  %3 = getelementptr inbounds nuw i8, ptr %1, i64 8
  tail call void @llvm.memset.p0.i64(ptr noundef nonnull align 8 dereferenceable(1224) %3, i8 0, i64 1216, i1 false)
  store ptr %0, ptr %1, align 8, !tbaa !29
  %4 = getelementptr inbounds nuw i8, ptr %1, i64 112
  tail call void @llvm.memcpy.p0.p0.i64(ptr noundef nonnull align 8 dereferenceable(675) %4, ptr noundef nonnull align 16 dereferenceable(675) @default_wt_status_colors, i64 675, i1 false)
  %5 = getelementptr inbounds nuw i8, ptr %1, i64 96
  store i32 1, ptr %5, align 8, !tbaa !30
  %6 = getelementptr inbounds nuw i8, ptr %1, i64 72
  store i32 -1, ptr %6, align 8, !tbaa !31
  %7 = getelementptr inbounds nuw i8, ptr %1, i64 84
  store i32 1, ptr %7, align 4, !tbaa !32
  %8 = load ptr, ptr @the_repository, align 8, !tbaa !33
  %9 = tail call ptr @get_main_ref_store(ptr noundef %8) #20
  %10 = tail call ptr @refs_resolve_refdup(ptr noundef %9, ptr noundef nonnull @.str.1, i32 noundef 0, ptr noundef null, ptr noundef null) #20
  %11 = getelementptr inbounds nuw i8, ptr %1, i64 16
  store ptr %10, ptr %11, align 8, !tbaa !34
  %12 = getelementptr inbounds nuw i8, ptr %1, i64 24
  store ptr @.str.1, ptr %12, align 8, !tbaa !35
  %13 = load ptr, ptr @stdout, align 8, !tbaa !36
  %14 = getelementptr inbounds nuw i8, ptr %1, i64 1080
  store ptr %13, ptr %14, align 8, !tbaa !23
  %15 = load ptr, ptr @the_repository, align 8, !tbaa !33
  %16 = tail call ptr @repo_get_index_file(ptr noundef %15) #20
  %17 = getelementptr inbounds nuw i8, ptr %1, i64 1072
  store ptr %16, ptr %17, align 8, !tbaa !37
  %18 = getelementptr inbounds nuw i8, ptr %1, i64 1120
  %19 = load i8, ptr %18, align 8
  %20 = or i8 %19, 1
  store i8 %20, ptr %18, align 8
  %21 = getelementptr inbounds nuw i8, ptr %1, i64 1160
  %22 = load i8, ptr %21, align 8
  %23 = or i8 %22, 1
  store i8 %23, ptr %21, align 8
  %24 = getelementptr inbounds nuw i8, ptr %1, i64 1200
  %25 = load i8, ptr %24, align 8
  %26 = or i8 %25, 1
  store i8 %26, ptr %24, align 8
  %27 = getelementptr inbounds nuw i8, ptr %1, i64 800
  store i32 -1, ptr %27, align 8, !tbaa !38
  %28 = getelementptr inbounds nuw i8, ptr %1, i64 804
  store i32 0, ptr %28, align 4, !tbaa !39
  %29 = getelementptr inbounds nuw i8, ptr %1, i64 812
  store i32 -1, ptr %29, align 4, !tbaa !40
  %30 = getelementptr inbounds nuw i8, ptr %1, i64 80
  store i32 0, ptr %30, align 8, !tbaa !11
  %31 = getelementptr inbounds nuw i8, ptr %1, i64 816
  store i32 -1, ptr %31, align 8, !tbaa !41
  %32 = getelementptr inbounds nuw i8, ptr %1, i64 820
  store i32 -1, ptr %32, align 4, !tbaa !42
  %33 = getelementptr inbounds nuw i8, ptr %1, i64 824
  store i32 -1, ptr %33, align 8, !tbaa !43
  ret void
}